target datalayout = "e-m:e-p270:32:32-p271:32:32-p272:64:64-i64:64-i128:128-f80:128-n8:16:32:64-S128"
target triple = "x86_64-pc-linux-gnu"

%struct.DbInfo = type { i32, ptr, [1024 x i8], %struct.RelInfoArr, %struct.LogicalSlotInfoArr }
%struct.RelInfoArr = type { ptr, i32 }
%struct.LogicalSlotInfoArr = type { i32, ptr }
%struct.LogicalSlotInfo = type { ptr, ptr, i8, i8, i8, i8 }

@.str.47 = private unnamed_addr constant [10 x i8] c"slot_name\00", align 1
@.str.48 = private unnamed_addr constant [7 x i8] c"plugin\00", align 1
@.str.49 = private unnamed_addr constant [10 x i8] c"two_phase\00", align 1
@.str.50 = private unnamed_addr constant [9 x i8] c"failover\00", align 1
@.str.51 = private unnamed_addr constant [10 x i8] c"caught_up\00", align 1
@.str.52 = private unnamed_addr constant [8 x i8] c"invalid\00", align 1
@.str.53 = private unnamed_addr constant [2 x i8] c"t\00", align 1

; Function Attrs: nounwind uwtable
define internal void @process_old_cluster_logical_slot_infos(ptr noundef %0, ptr noundef %1, ptr noundef %2) #0 {
  %4 = alloca ptr, align 8
  %5 = alloca ptr, align 8
  %6 = alloca ptr, align 8
  %7 = alloca ptr, align 8
  %8 = alloca i32, align 4
  %9 = alloca i32, align 4
  %10 = alloca i32, align 4
  %11 = alloca i32, align 4
  %12 = alloca i32, align 4
  %13 = alloca i32, align 4
  %14 = alloca i32, align 4
  %15 = alloca i32, align 4
  %16 = alloca ptr, align 8
  store ptr %0, ptr %4, align 8
  store ptr %1, ptr %5, align 8
  store ptr %2, ptr %6, align 8
  call void @llvm.lifetime.start.p0(i64 8, ptr %7) #7
  store ptr null, ptr %7, align 8
  call void @llvm.lifetime.start.p0(i64 4, ptr %8) #7
  %17 = load ptr, ptr %5, align 8
  %18 = call i32 @PQntuples(ptr noundef %17)
  store i32 %18, ptr %8, align 4
  br label %19

19:                                               ; preds = %3
  br label %20

20:                                               ; preds = %19
  br label %21

21:                                               ; preds = %20
  %22 = load i32, ptr %8, align 4
  %23 = icmp ne i32 %22, 0
  br i1 %23, label %24, label %105

24:                                               ; preds = %21
  call void @llvm.lifetime.start.p0(i64 4, ptr %9) #7
  call void @llvm.lifetime.start.p0(i64 4, ptr %10) #7
  call void @llvm.lifetime.start.p0(i64 4, ptr %11) #7
  call void @llvm.lifetime.start.p0(i64 4, ptr %12) #7
  call void @llvm.lifetime.start.p0(i64 4, ptr %13) #7
  call void @llvm.lifetime.start.p0(i64 4, ptr %14) #7
  %25 = load i32, ptr %8, align 4
  %26 = sext i32 %25 to i64
  %27 = mul i64 24, %26
  %28 = call ptr @pg_malloc(i64 noundef %27)
  store ptr %28, ptr %7, align 8
  %29 = load ptr, ptr %5, align 8
  %30 = call i32 @PQfnumber(ptr noundef %29, ptr noundef @.str.47)
  store i32 %30, ptr %9, align 4
  %31 = load ptr, ptr %5, align 8
  %32 = call i32 @PQfnumber(ptr noundef %31, ptr noundef @.str.48)
  store i32 %32, ptr %10, align 4
  %33 = load ptr, ptr %5, align 8
  %34 = call i32 @PQfnumber(ptr noundef %33, ptr noundef @.str.49)
  store i32 %34, ptr %11, align 4
  %35 = load ptr, ptr %5, align 8
  %36 = call i32 @PQfnumber(ptr noundef %35, ptr noundef @.str.50)
  store i32 %36, ptr %12, align 4
  %37 = load ptr, ptr %5, align 8
  %38 = call i32 @PQfnumber(ptr noundef %37, ptr noundef @.str.51)
  store i32 %38, ptr %13, align 4
  %39 = load ptr, ptr %5, align 8
  %40 = call i32 @PQfnumber(ptr noundef %39, ptr noundef @.str.52)
  store i32 %40, ptr %14, align 4
  call void @llvm.lifetime.start.p0(i64 4, ptr %15) #7
  store i32 0, ptr %15, align 4
  br label %41

41:                                               ; preds = %101, %24
  %42 = load i32, ptr %15, align 4
  %43 = load i32, ptr %8, align 4
  %44 = icmp slt i32 %42, %43
  br i1 %44, label %46, label %45

45:                                               ; preds = %41
  call void @llvm.lifetime.end.p0(i64 4, ptr %15) #7
  br label %104

46:                                               ; preds = %41
  call void @llvm.lifetime.start.p0(i64 8, ptr %16) #7
  %47 = load ptr, ptr %7, align 8
  %48 = load i32, ptr %15, align 4
  %49 = sext i32 %48 to i64
  %50 = getelementptr inbounds %struct.LogicalSlotInfo, ptr %47, i64 %49
  store ptr %50, ptr %16, align 8
  %51 = load ptr, ptr %5, align 8
  %52 = load i32, ptr %15, align 4
  %53 = load i32, ptr %9, align 4
  %54 = call ptr @PQgetvalue(ptr noundef %51, i32 noundef %52, i32 noundef %53)
  %55 = call ptr @pg_strdup(ptr noundef %54)
  %56 = load ptr, ptr %16, align 8
  %57 = getelementptr inbounds nuw %struct.LogicalSlotInfo, ptr %56, i32 0, i32 0
  store ptr %55, ptr %57, align 8
  %58 = load ptr, ptr %5, align 8
  %59 = load i32, ptr %15, align 4
  %60 = load i32, ptr %10, align 4
  %61 = call ptr @PQgetvalue(ptr noundef %58, i32 noundef %59, i32 noundef %60)
  %62 = call ptr @pg_strdup(ptr noundef %61)
  %63 = load ptr, ptr %16, align 8
  %64 = getelementptr inbounds nuw %struct.LogicalSlotInfo, ptr %63, i32 0, i32 1
  store ptr %62, ptr %64, align 8
  %65 = load ptr, ptr %5, align 8
  %66 = load i32, ptr %15, align 4
  %67 = load i32, ptr %11, align 4
  %68 = call ptr @PQgetvalue(ptr noundef %65, i32 noundef %66, i32 noundef %67)
  %69 = call i32 @strcmp(ptr noundef %68, ptr noundef @.str.53) #8
  %70 = icmp eq i32 %69, 0
  %71 = load ptr, ptr %16, align 8
  %72 = getelementptr inbounds nuw %struct.LogicalSlotInfo, ptr %71, i32 0, i32 2
  %73 = zext i1 %70 to i8
  store i8 %73, ptr %72, align 8
  %74 = load ptr, ptr %5, align 8
  %75 = load i32, ptr %15, align 4
  %76 = load i32, ptr %12, align 4
  %77 = call ptr @PQgetvalue(ptr noundef %74, i32 noundef %75, i32 noundef %76)
  %78 = call i32 @strcmp(ptr noundef %77, ptr noundef @.str.53) #8
  %79 = icmp eq i32 %78, 0
  %80 = load ptr, ptr %16, align 8
  %81 = getelementptr inbounds nuw %struct.LogicalSlotInfo, ptr %80, i32 0, i32 5
  %82 = zext i1 %79 to i8
  store i8 %82, ptr %81, align 1
  %83 = load ptr, ptr %5, align 8
  %84 = load i32, ptr %15, align 4
  %85 = load i32, ptr %13, align 4
  %86 = call ptr @PQgetvalue(ptr noundef %83, i32 noundef %84, i32 noundef %85)
  %87 = call i32 @strcmp(ptr noundef %86, ptr noundef @.str.53) #8
  %88 = icmp eq i32 %87, 0
  %89 = load ptr, ptr %16, align 8
  %90 = getelementptr inbounds nuw %struct.LogicalSlotInfo, ptr %89, i32 0, i32 3
  %91 = zext i1 %88 to i8
  store i8 %91, ptr %90, align 1
  %92 = load ptr, ptr %5, align 8
  %93 = load i32, ptr %15, align 4
  %94 = load i32, ptr %14, align 4
  %95 = call ptr @PQgetvalue(ptr noundef %92, i32 noundef %93, i32 noundef %94)
  %96 = call i32 @strcmp(ptr noundef %95, ptr noundef @.str.53) #8
  %97 = icmp eq i32 %96, 0
  %98 = load ptr, ptr %16, align 8
  %99 = getelementptr inbounds nuw %struct.LogicalSlotInfo, ptr %98, i32 0, i32 4
  %100 = zext i1 %97 to i8
  store i8 %100, ptr %99, align 2
  call void @llvm.lifetime.end.p0(i64 8, ptr %16) #7
  br label %101

101:                                              ; preds = %46
  %102 = load i32, ptr %15, align 4
  %103 = add i32 %102, 1
  store i32 %103, ptr %15, align 4
  br label %41, !llvm.loop !13

104:                                              ; preds = %45
  call void @llvm.lifetime.end.p0(i64 4, ptr %14) #7
  call void @llvm.lifetime.end.p0(i64 4, ptr %13) #7
  call void @llvm.lifetime.end.p0(i64 4, ptr %12) #7
  call void @llvm.lifetime.end.p0(i64 4, ptr %11) #7
  call void @llvm.lifetime.end.p0(i64 4, ptr %10) #7
  call void @llvm.lifetime.end.p0(i64 4, ptr %9) #7
  br label %105

105:                                              ; preds = %104, %21
  %106 = load ptr, ptr %7, align 8
  %107 = load ptr, ptr %4, align 8
  %108 = getelementptr inbounds nuw %struct.DbInfo, ptr %107, i32 0, i32 4
  %109 = getelementptr inbounds nuw %struct.LogicalSlotInfoArr, ptr %108, i32 0, i32 1
  store ptr %106, ptr %109, align 8
  %110 = load i32, ptr %8, align 4
  %111 = load ptr, ptr %4, align 8
  %112 = getelementptr inbounds nuw %struct.DbInfo, ptr %111, i32 0, i32 4
  %113 = getelementptr inbounds nuw %struct.LogicalSlotInfoArr, ptr %112, i32 0, i32 0
  store i32 %110, ptr %113, align 8
  call void @llvm.lifetime.end.p0(i64 4, ptr %8) #7
  call void @llvm.lifetime.end.p0(i64 8, ptr %7) #7
  ret void
}