; Function Attrs: nounwind uwtable
define internal void @process_old_cluster_logical_slot_infos(ptr noundef writeonly captures(none) %0, ptr noundef %1, ptr readnone captures(none) %2) #0 {
  %4 = tail call i32 @PQntuples(ptr noundef %1) #7
  %.not = icmp eq i32 %4, 0
  br i1 %.not, label %.loopexit, label %5

5:                                                ; preds = %3
  %6 = sext i32 %4 to i64
  %7 = mul nsw i64 %6, 24
  %8 = tail call ptr @pg_malloc(i64 noundef %7) #7
  %9 = tail call i32 @PQfnumber(ptr noundef %1, ptr noundef nonnull @.str.47) #7
  %10 = tail call i32 @PQfnumber(ptr noundef %1, ptr noundef nonnull @.str.48) #7
  %11 = tail call i32 @PQfnumber(ptr noundef %1, ptr noundef nonnull @.str.49) #7
  %12 = tail call i32 @PQfnumber(ptr noundef %1, ptr noundef nonnull @.str.50) #7
  %13 = tail call i32 @PQfnumber(ptr noundef %1, ptr noundef nonnull @.str.51) #7
  %14 = tail call i32 @PQfnumber(ptr noundef %1, ptr noundef nonnull @.str.52) #7
  %15 = icmp sgt i32 %4, 0
  br i1 %15, label %sub_052.preheader, label %.loopexit

sub_052.preheader:                                ; preds = %5
  %wide.trip.count = zext nneg i32 %4 to i64
  br label %sub_052

sub_052:                                          ; preds = %sub_052.preheader, %.tail
  %indvars.iv = phi i64 [ 0, %sub_052.preheader ], [ %indvars.iv.next, %.tail ]
  %16 = getelementptr inbounds nuw %struct.LogicalSlotInfo, ptr %8, i64 %indvars.iv
  %17 = trunc nuw nsw i64 %indvars.iv to i32
  %18 = tail call ptr @PQgetvalue(ptr noundef %1, i32 noundef %17, i32 noundef %9) #7
  %19 = tail call ptr @pg_strdup(ptr noundef %18) #7
  store ptr %19, ptr %16, align 8
  %20 = tail call ptr @PQgetvalue(ptr noundef %1, i32 noundef %17, i32 noundef %10) #7
  %21 = tail call ptr @pg_strdup(ptr noundef %20) #7
  %22 = getelementptr inbounds nuw i8, ptr %16, i64 8
  store ptr %21, ptr %22, align 8
  %23 = tail call ptr @PQgetvalue(ptr noundef %1, i32 noundef %17, i32 noundef %11) #7
  %24 = load i8, ptr %23, align 1
  %.not56 = icmp eq i8 %24, 116
  br i1 %.not56, label %sub_153, label %.tail51

sub_153:                                          ; preds = %sub_052
  %25 = getelementptr inbounds nuw i8, ptr %23, i64 1
  %26 = load i8, ptr %25, align 1
  %27 = icmp eq i8 %26, 0
  %28 = zext i1 %27 to i8
  br label %.tail51

.tail51:                                          ; preds = %sub_052, %sub_153
  %29 = phi i8 [ 0, %sub_052 ], [ %28, %sub_153 ]
  %30 = getelementptr inbounds nuw i8, ptr %16, i64 16
  store i8 %29, ptr %30, align 8
  %31 = tail call ptr @PQgetvalue(ptr noundef %1, i32 noundef %17, i32 noundef %12) #7
  %32 = load i8, ptr %31, align 1
  %.not57 = icmp eq i8 %32, 116
  br i1 %.not57, label %sub_149, label %.tail47

sub_149:                                          ; preds = %.tail51
  %33 = getelementptr inbounds nuw i8, ptr %31, i64 1
  %34 = load i8, ptr %33, align 1
  %35 = icmp eq i8 %34, 0
  %36 = zext i1 %35 to i8
  br label %.tail47

.tail47:                                          ; preds = %.tail51, %sub_149
  %37 = phi i8 [ 0, %.tail51 ], [ %36, %sub_149 ]
  %38 = getelementptr inbounds nuw i8, ptr %16, i64 19
  store i8 %37, ptr %38, align 1
  %39 = tail call ptr @PQgetvalue(ptr noundef %1, i32 noundef %17, i32 noundef %13) #7
  %40 = load i8, ptr %39, align 1
  %.not58 = icmp eq i8 %40, 116
  br i1 %.not58, label %sub_145, label %.tail43

sub_145:                                          ; preds = %.tail47
  %41 = getelementptr inbounds nuw i8, ptr %39, i64 1
  %42 = load i8, ptr %41, align 1
  %43 = icmp eq i8 %42, 0
  %44 = zext i1 %43 to i8
  br label %.tail43

.tail43:                                          ; preds = %.tail47, %sub_145
  %45 = phi i8 [ 0, %.tail47 ], [ %44, %sub_145 ]
  %46 = getelementptr inbounds nuw i8, ptr %16, i64 17
  store i8 %45, ptr %46, align 1
  %47 = tail call ptr @PQgetvalue(ptr noundef %1, i32 noundef %17, i32 noundef %14) #7
  %48 = load i8, ptr %47, align 1
  %.not59 = icmp eq i8 %48, 116
  br i1 %.not59, label %sub_1, label %.tail

sub_1:                                            ; preds = %.tail43
  %49 = getelementptr inbounds nuw i8, ptr %47, i64 1
  %50 = load i8, ptr %49, align 1
  %51 = icmp eq i8 %50, 0
  %52 = zext i1 %51 to i8
  br label %.tail

.tail:                                            ; preds = %.tail43, %sub_1
  %53 = phi i8 [ 0, %.tail43 ], [ %52, %sub_1 ]
  %54 = getelementptr inbounds nuw i8, ptr %16, i64 18
  store i8 %53, ptr %54, align 2
  %indvars.iv.next = add nuw nsw i64 %indvars.iv, 1
  %exitcond.not = icmp eq i64 %indvars.iv.next, %wide.trip.count
  br i1 %exitcond.not, label %.loopexit, label %sub_052, !llvm.loop !17

.loopexit:                                        ; preds = %.tail, %5, %3
  %.0 = phi ptr [ null, %3 ], [ %8, %5 ], [ %8, %.tail ]
  %55 = getelementptr inbounds nuw i8, ptr %0, i64 1056
  %56 = getelementptr inbounds nuw i8, ptr %0, i64 1064
  store ptr %.0, ptr %56, align 8
  store i32 %4, ptr %55, align 8
  ret void
}